target datalayout = "e-m:e-p270:32:32-p271:32:32-p272:64:64-i64:64-i128:128-f80:128-n8:16:32:64-S128"
target triple = "x86_64-pc-linux-gnu"

%struct.srun_opt_t = type { i16, ptr, ptr, ptr, i8, ptr, i16, i8, ptr, i32, i8, i8, i8, ptr, i8, i8, i8, i32, i32, i32, i8, i32, i32, i32, ptr, i8, i32, i8, i8, ptr, ptr, i32, i8, i8, ptr, ptr, ptr, i8, i32, i8, i32, ptr, ptr, i8, i8, i16, i8, i8 }
%struct.slurm_opt_t = type { ptr, ptr, ptr, ptr, ptr, ptr, ptr, ptr, i32, ptr, ptr, ptr, ptr, i32, i32, ptr, i32, i8, i8, i32, i8, i32, i32, ptr, i8, i32, i32, i64, i32, i32, i32, i32, i32, i32, ptr, i32, ptr, i8, i32, i32, ptr, i32, i32, i32, ptr, ptr, i32, i32, ptr, ptr, ptr, i32, i16, i16, i16, i8, i8, ptr, i8, i16, ptr, ptr, i32, i32, i32, ptr, ptr, ptr, ptr, ptr, ptr, i32, i64, i64, i64, i16, i64, ptr, ptr, ptr, ptr, ptr, ptr, ptr, i8, ptr, ptr, ptr, ptr, i8, i64, ptr, i16, ptr, i32, i32, ptr, ptr, i32, i32, i32, ptr, i32, i32, i32, i32, i32, ptr, i64, i32, i16, i32, ptr, ptr, ptr, ptr, ptr, i16, ptr, ptr, i16, i8, ptr, ptr, ptr, ptr }

@sropt = dso_local global %struct.srun_opt_t zeroinitializer, align 8
@.str.106 = private unnamed_addr constant [6 x i8] c"opt.c\00", align 1
@__func__._opt_copy = private unnamed_addr constant [10 x i8] c"_opt_copy\00", align 1

; Function Attrs: nounwind uwtable
define internal ptr @_opt_copy() #0 {
  %1 = alloca ptr, align 8
  %2 = alloca i32, align 4
  call void @llvm.lifetime.start.p0(i64 8, ptr %1) #9
  call void @llvm.lifetime.start.p0(i64 4, ptr %2) #9
  %3 = call ptr @slurm_xcalloc(i64 noundef 1, i64 noundef 816, i1 noundef zeroext true, i1 noundef zeroext false, ptr noundef @.str.106, i32 noundef 266, ptr noundef @__func__._opt_copy)
  store ptr %3, ptr %1, align 8
  %4 = load ptr, ptr %1, align 8
  call void @llvm.memcpy.p0.p0.i64(ptr align 8 %4, ptr align 8 @opt, i64 816, i1 false)
  %5 = call ptr @slurm_xcalloc(i64 noundef 1, i64 noundef 224, i1 noundef zeroext true, i1 noundef zeroext false, ptr noundef @.str.106, i32 noundef 268, ptr noundef @__func__._opt_copy)
  %6 = load ptr, ptr %1, align 8
  %7 = getelementptr inbounds nuw %struct.slurm_opt_t, ptr %6, i32 0, i32 3
  store ptr %5, ptr %7, align 8
  %8 = load ptr, ptr %1, align 8
  %9 = getelementptr inbounds nuw %struct.slurm_opt_t, ptr %8, i32 0, i32 3
  %10 = load ptr, ptr %9, align 8
  call void @llvm.memcpy.p0.p0.i64(ptr align 8 %10, ptr align 8 @sropt, i64 224, i1 false)
  %11 = load ptr, ptr getelementptr inbounds nuw (%struct.slurm_opt_t, ptr @opt, i32 0, i32 48), align 8
  %12 = call ptr @xstrdup(ptr noundef %11)
  %13 = load ptr, ptr %1, align 8
  %14 = getelementptr inbounds nuw %struct.slurm_opt_t, ptr %13, i32 0, i32 48
  store ptr %12, ptr %14, align 8
  %15 = load ptr, ptr getelementptr inbounds nuw (%struct.slurm_opt_t, ptr @opt, i32 0, i32 57), align 8
  %16 = call ptr @xstrdup(ptr noundef %15)
  %17 = load ptr, ptr %1, align 8
  %18 = getelementptr inbounds nuw %struct.slurm_opt_t, ptr %17, i32 0, i32 57
  store ptr %16, ptr %18, align 8
  %19 = load ptr, ptr getelementptr inbounds nuw (%struct.srun_opt_t, ptr @sropt, i32 0, i32 1), align 8
  %20 = call ptr @xstrdup(ptr noundef %19)
  %21 = load ptr, ptr %1, align 8
  %22 = getelementptr inbounds nuw %struct.slurm_opt_t, ptr %21, i32 0, i32 3
  %23 = load ptr, ptr %22, align 8
  %24 = getelementptr inbounds nuw %struct.srun_opt_t, ptr %23, i32 0, i32 1
  store ptr %20, ptr %24, align 8
  %25 = load i32, ptr getelementptr inbounds nuw (%struct.slurm_opt_t, ptr @opt, i32 0, i32 8), align 8
  %26 = sext i32 %25 to i64
  %27 = call ptr @slurm_xcalloc(i64 noundef 8, i64 noundef %26, i1 noundef zeroext true, i1 noundef zeroext false, ptr noundef @.str.106, i32 noundef 274, ptr noundef @__func__._opt_copy)
  %28 = load ptr, ptr %1, align 8
  %29 = getelementptr inbounds nuw %struct.slurm_opt_t, ptr %28, i32 0, i32 9
  store ptr %27, ptr %29, align 8
  store i32 0, ptr %2, align 4
  br label %30

30:                                               ; preds = %47, %0
  %31 = load i32, ptr %2, align 4
  %32 = load i32, ptr getelementptr inbounds nuw (%struct.slurm_opt_t, ptr @opt, i32 0, i32 8), align 8
  %33 = icmp slt i32 %31, %32
  br i1 %33, label %34, label %50

34:                                               ; preds = %30
  %35 = load ptr, ptr getelementptr inbounds nuw (%struct.slurm_opt_t, ptr @opt, i32 0, i32 9), align 8
  %36 = load i32, ptr %2, align 4
  %37 = sext i32 %36 to i64
  %38 = getelementptr inbounds ptr, ptr %35, i64 %37
  %39 = load ptr, ptr %38, align 8
  %40 = call ptr @xstrdup(ptr noundef %39)
  %41 = load ptr, ptr %1, align 8
  %42 = getelementptr inbounds nuw %struct.slurm_opt_t, ptr %41, i32 0, i32 9
  %43 = load ptr, ptr %42, align 8
  %44 = load i32, ptr %2, align 4
  %45 = sext i32 %44 to i64
  %46 = getelementptr inbounds ptr, ptr %43, i64 %45
  store ptr %40, ptr %46, align 8
  br label %47

47:                                               ; preds = %34
  %48 = load i32, ptr %2, align 4
  %49 = add nsw i32 %48, 1
  store i32 %49, ptr %2, align 4
  br label %30, !llvm.loop !19

50:                                               ; preds = %30
  store ptr null, ptr getelementptr inbounds nuw (%struct.srun_opt_t, ptr @sropt, i32 0, i32 3), align 8
  store ptr null, ptr getelementptr inbounds nuw (%struct.slurm_opt_t, ptr @opt, i32 0, i32 10), align 8
  %51 = load ptr, ptr getelementptr inbounds nuw (%struct.slurm_opt_t, ptr @opt, i32 0, i32 79), align 8
  %52 = call ptr @xstrdup(ptr noundef %51)
  %53 = load ptr, ptr %1, align 8
  %54 = getelementptr inbounds nuw %struct.slurm_opt_t, ptr %53, i32 0, i32 79
  store ptr %52, ptr %54, align 8
  %55 = load ptr, ptr getelementptr inbounds nuw (%struct.slurm_opt_t, ptr @opt, i32 0, i32 12), align 8
  %56 = call ptr @xstrdup(ptr noundef %55)
  %57 = load ptr, ptr %1, align 8
  %58 = getelementptr inbounds nuw %struct.slurm_opt_t, ptr %57, i32 0, i32 12
  store ptr %56, ptr %58, align 8
  %59 = load ptr, ptr getelementptr inbounds nuw (%struct.srun_opt_t, ptr @sropt, i32 0, i32 5), align 8
  %60 = call ptr @xstrdup(ptr noundef %59)
  %61 = load ptr, ptr %1, align 8
  %62 = getelementptr inbounds nuw %struct.slurm_opt_t, ptr %61, i32 0, i32 3
  %63 = load ptr, ptr %62, align 8
  %64 = getelementptr inbounds nuw %struct.srun_opt_t, ptr %63, i32 0, i32 5
  store ptr %60, ptr %64, align 8
  %65 = load ptr, ptr getelementptr inbounds nuw (%struct.slurm_opt_t, ptr @opt, i32 0, i32 49), align 8
  %66 = call ptr @xstrdup(ptr noundef %65)
  %67 = load ptr, ptr %1, align 8
  %68 = getelementptr inbounds nuw %struct.slurm_opt_t, ptr %67, i32 0, i32 49
  store ptr %66, ptr %68, align 8
  store ptr null, ptr getelementptr inbounds nuw (%struct.slurm_opt_t, ptr @opt, i32 0, i32 78), align 8
  %69 = load ptr, ptr getelementptr inbounds nuw (%struct.slurm_opt_t, ptr @opt, i32 0, i32 83), align 8
  %70 = call ptr @xstrdup(ptr noundef %69)
  %71 = load ptr, ptr %1, align 8
  %72 = getelementptr inbounds nuw %struct.slurm_opt_t, ptr %71, i32 0, i32 83
  store ptr %70, ptr %72, align 8
  %73 = load ptr, ptr getelementptr inbounds nuw (%struct.srun_opt_t, ptr @sropt, i32 0, i32 8), align 8
  %74 = call ptr @xstrdup(ptr noundef %73)
  %75 = load ptr, ptr %1, align 8
  %76 = getelementptr inbounds nuw %struct.slurm_opt_t, ptr %75, i32 0, i32 3
  %77 = load ptr, ptr %76, align 8
  %78 = getelementptr inbounds nuw %struct.srun_opt_t, ptr %77, i32 0, i32 8
  store ptr %74, ptr %78, align 8
  %79 = load ptr, ptr getelementptr inbounds nuw (%struct.slurm_opt_t, ptr @opt, i32 0, i32 15), align 8
  %80 = call ptr @xstrdup(ptr noundef %79)
  %81 = load ptr, ptr %1, align 8
  %82 = getelementptr inbounds nuw %struct.slurm_opt_t, ptr %81, i32 0, i32 15
  store ptr %80, ptr %82, align 8
  %83 = load ptr, ptr getelementptr inbounds nuw (%struct.slurm_opt_t, ptr @opt, i32 0, i32 45), align 8
  %84 = call ptr @xstrdup(ptr noundef %83)
  %85 = load ptr, ptr %1, align 8
  %86 = getelementptr inbounds nuw %struct.slurm_opt_t, ptr %85, i32 0, i32 45
  store ptr %84, ptr %86, align 8
  %87 = load ptr, ptr getelementptr inbounds nuw (%struct.slurm_opt_t, ptr @opt, i32 0, i32 123), align 8
  %88 = call ptr @xstrdup(ptr noundef %87)
  %89 = load ptr, ptr %1, align 8
  %90 = getelementptr inbounds nuw %struct.slurm_opt_t, ptr %89, i32 0, i32 123
  store ptr %88, ptr %90, align 8
  %91 = load ptr, ptr getelementptr inbounds nuw (%struct.srun_opt_t, ptr @sropt, i32 0, i32 13), align 8
  %92 = call ptr @xstrdup(ptr noundef %91)
  %93 = load ptr, ptr %1, align 8
  %94 = getelementptr inbounds nuw %struct.slurm_opt_t, ptr %93, i32 0, i32 3
  %95 = load ptr, ptr %94, align 8
  %96 = getelementptr inbounds nuw %struct.srun_opt_t, ptr %95, i32 0, i32 13
  store ptr %92, ptr %96, align 8
  %97 = load ptr, ptr getelementptr inbounds nuw (%struct.slurm_opt_t, ptr @opt, i32 0, i32 88), align 8
  %98 = call ptr @xstrdup(ptr noundef %97)
  %99 = load ptr, ptr %1, align 8
  %100 = getelementptr inbounds nuw %struct.slurm_opt_t, ptr %99, i32 0, i32 88
  store ptr %98, ptr %100, align 8
  %101 = load ptr, ptr getelementptr inbounds nuw (%struct.slurm_opt_t, ptr @opt, i32 0, i32 122), align 8
  %102 = call ptr @xstrdup(ptr noundef %101)
  %103 = load ptr, ptr %1, align 8
  %104 = getelementptr inbounds nuw %struct.slurm_opt_t, ptr %103, i32 0, i32 122
  store ptr %102, ptr %104, align 8
  %105 = load ptr, ptr getelementptr inbounds nuw (%struct.slurm_opt_t, ptr @opt, i32 0, i32 91), align 8
  %106 = call ptr @xstrdup(ptr noundef %105)
  %107 = load ptr, ptr %1, align 8
  %108 = getelementptr inbounds nuw %struct.slurm_opt_t, ptr %107, i32 0, i32 91
  store ptr %106, ptr %108, align 8
  store ptr null, ptr getelementptr inbounds nuw (%struct.slurm_opt_t, ptr @opt, i32 0, i32 80), align 8
  store ptr null, ptr getelementptr inbounds nuw (%struct.slurm_opt_t, ptr @opt, i32 0, i32 66), align 8
  store ptr null, ptr getelementptr inbounds nuw (%struct.slurm_opt_t, ptr @opt, i32 0, i32 67), align 8
  store ptr null, ptr getelementptr inbounds nuw (%struct.slurm_opt_t, ptr @opt, i32 0, i32 65), align 8
  store ptr null, ptr getelementptr inbounds nuw (%struct.slurm_opt_t, ptr @opt, i32 0, i32 68), align 8
  store ptr null, ptr getelementptr inbounds nuw (%struct.slurm_opt_t, ptr @opt, i32 0, i32 69), align 8
  store ptr null, ptr getelementptr inbounds nuw (%struct.slurm_opt_t, ptr @opt, i32 0, i32 70), align 8
  %109 = load ptr, ptr getelementptr inbounds nuw (%struct.slurm_opt_t, ptr @opt, i32 0, i32 124), align 8
  %110 = call ptr @xstrdup(ptr noundef %109)
  %111 = load ptr, ptr %1, align 8
  %112 = getelementptr inbounds nuw %struct.slurm_opt_t, ptr %111, i32 0, i32 124
  store ptr %110, ptr %112, align 8
  %113 = load ptr, ptr getelementptr inbounds nuw (%struct.slurm_opt_t, ptr @opt, i32 0, i32 44), align 8
  %114 = call ptr @xstrdup(ptr noundef %113)
  %115 = load ptr, ptr %1, align 8
  %116 = getelementptr inbounds nuw %struct.slurm_opt_t, ptr %115, i32 0, i32 44
  store ptr %114, ptr %116, align 8
  store ptr null, ptr getelementptr inbounds nuw (%struct.slurm_opt_t, ptr @opt, i32 0, i32 60), align 8
  store ptr null, ptr getelementptr inbounds nuw (%struct.slurm_opt_t, ptr @opt, i32 0, i32 93), align 8
  %117 = load ptr, ptr getelementptr inbounds nuw (%struct.slurm_opt_t, ptr @opt, i32 0, i32 107), align 8
  %118 = call ptr @xstrdup(ptr noundef %117)
  %119 = load ptr, ptr %1, align 8
  %120 = getelementptr inbounds nuw %struct.slurm_opt_t, ptr %119, i32 0, i32 107
  store ptr %118, ptr %120, align 8
  store ptr null, ptr getelementptr inbounds nuw (%struct.slurm_opt_t, ptr @opt, i32 0, i32 36), align 8
  %121 = load ptr, ptr getelementptr inbounds nuw (%struct.srun_opt_t, ptr @sropt, i32 0, i32 24), align 8
  %122 = call ptr @xstrdup(ptr noundef %121)
  %123 = load ptr, ptr %1, align 8
  %124 = getelementptr inbounds nuw %struct.slurm_opt_t, ptr %123, i32 0, i32 3
  %125 = load ptr, ptr %124, align 8
  %126 = getelementptr inbounds nuw %struct.srun_opt_t, ptr %125, i32 0, i32 24
  store ptr %122, ptr %126, align 8
  store ptr null, ptr getelementptr inbounds nuw (%struct.slurm_opt_t, ptr @opt, i32 0, i32 61), align 8
  store ptr null, ptr getelementptr inbounds nuw (%struct.slurm_opt_t, ptr @opt, i32 0, i32 86), align 8
  %127 = load ptr, ptr getelementptr inbounds nuw (%struct.slurm_opt_t, ptr @opt, i32 0, i32 125), align 8
  %128 = call ptr @xstrdup(ptr noundef %127)
  %129 = load ptr, ptr %1, align 8
  %130 = getelementptr inbounds nuw %struct.slurm_opt_t, ptr %129, i32 0, i32 125
  store ptr %128, ptr %130, align 8
  store ptr null, ptr getelementptr inbounds nuw (%struct.srun_opt_t, ptr @sropt, i32 0, i32 29), align 8
  store ptr null, ptr getelementptr inbounds nuw (%struct.srun_opt_t, ptr @sropt, i32 0, i32 30), align 8
  store ptr null, ptr getelementptr inbounds nuw (%struct.slurm_opt_t, ptr @opt, i32 0, i32 40), align 8
  %131 = load ptr, ptr getelementptr inbounds nuw (%struct.srun_opt_t, ptr @sropt, i32 0, i32 34), align 8
  %132 = call ptr @xstrdup(ptr noundef %131)
  %133 = load ptr, ptr %1, align 8
  %134 = getelementptr inbounds nuw %struct.slurm_opt_t, ptr %133, i32 0, i32 3
  %135 = load ptr, ptr %134, align 8
  %136 = getelementptr inbounds nuw %struct.srun_opt_t, ptr %135, i32 0, i32 34
  store ptr %132, ptr %136, align 8
  %137 = load ptr, ptr getelementptr inbounds nuw (%struct.srun_opt_t, ptr @sropt, i32 0, i32 35), align 8
  %138 = call ptr @xstrdup(ptr noundef %137)
  %139 = load ptr, ptr %1, align 8
  %140 = getelementptr inbounds nuw %struct.slurm_opt_t, ptr %139, i32 0, i32 3
  %141 = load ptr, ptr %140, align 8
  %142 = getelementptr inbounds nuw %struct.srun_opt_t, ptr %141, i32 0, i32 35
  store ptr %138, ptr %142, align 8
  %143 = load ptr, ptr getelementptr inbounds nuw (%struct.slurm_opt_t, ptr @opt, i32 0, i32 50), align 8
  %144 = call ptr @xstrdup(ptr noundef %143)
  %145 = load ptr, ptr %1, align 8
  %146 = getelementptr inbounds nuw %struct.slurm_opt_t, ptr %145, i32 0, i32 50
  store ptr %144, ptr %146, align 8
  %147 = load ptr, ptr getelementptr inbounds nuw (%struct.slurm_opt_t, ptr @opt, i32 0, i32 97), align 8
  %148 = call ptr @xstrdup(ptr noundef %147)
  %149 = load ptr, ptr %1, align 8
  %150 = getelementptr inbounds nuw %struct.slurm_opt_t, ptr %149, i32 0, i32 97
  store ptr %148, ptr %150, align 8
  store ptr null, ptr getelementptr inbounds nuw (%struct.slurm_opt_t, ptr @opt, i32 0, i32 101), align 8
  %151 = load ptr, ptr getelementptr inbounds nuw (%struct.srun_opt_t, ptr @sropt, i32 0, i32 41), align 8
  %152 = call ptr @xstrdup(ptr noundef %151)
  %153 = load ptr, ptr %1, align 8
  %154 = getelementptr inbounds nuw %struct.slurm_opt_t, ptr %153, i32 0, i32 3
  %155 = load ptr, ptr %154, align 8
  %156 = getelementptr inbounds nuw %struct.srun_opt_t, ptr %155, i32 0, i32 41
  store ptr %152, ptr %156, align 8
  %157 = load ptr, ptr getelementptr inbounds nuw (%struct.srun_opt_t, ptr @sropt, i32 0, i32 42), align 8
  %158 = call ptr @xstrdup(ptr noundef %157)
  %159 = load ptr, ptr %1, align 8
  %160 = getelementptr inbounds nuw %struct.slurm_opt_t, ptr %159, i32 0, i32 3
  %161 = load ptr, ptr %160, align 8
  %162 = getelementptr inbounds nuw %struct.srun_opt_t, ptr %161, i32 0, i32 42
  store ptr %158, ptr %162, align 8
  %163 = load ptr, ptr getelementptr inbounds nuw (%struct.slurm_opt_t, ptr @opt, i32 0, i32 114), align 8
  %164 = call ptr @xstrdup(ptr noundef %163)
  %165 = load ptr, ptr %1, align 8
  %166 = getelementptr inbounds nuw %struct.slurm_opt_t, ptr %165, i32 0, i32 114
  store ptr %164, ptr %166, align 8
  %167 = load ptr, ptr getelementptr inbounds nuw (%struct.slurm_opt_t, ptr @opt, i32 0, i32 115), align 8
  %168 = call ptr @xstrdup(ptr noundef %167)
  %169 = load ptr, ptr %1, align 8
  %170 = getelementptr inbounds nuw %struct.slurm_opt_t, ptr %169, i32 0, i32 115
  store ptr %168, ptr %170, align 8
  store ptr null, ptr getelementptr inbounds nuw (%struct.slurm_opt_t, ptr @opt, i32 0, i32 116), align 8
  %171 = load ptr, ptr getelementptr inbounds nuw (%struct.slurm_opt_t, ptr @opt, i32 0, i32 96), align 8
  %172 = call ptr @xstrdup(ptr noundef %171)
  %173 = load ptr, ptr %1, align 8
  %174 = getelementptr inbounds nuw %struct.slurm_opt_t, ptr %173, i32 0, i32 96
  store ptr %172, ptr %174, align 8
  %175 = load ptr, ptr %1, align 8
  call void @llvm.lifetime.end.p0(i64 4, ptr %2) #9
  call void @llvm.lifetime.end.p0(i64 8, ptr %1) #9
  ret ptr %175
}