; Function Attrs: nounwind uwtable
define internal fastcc noundef ptr @_opt_copy() unnamed_addr #0 {
  %1 = tail call ptr @slurm_xcalloc(i64 noundef 1, i64 noundef 816, i1 noundef zeroext true, i1 noundef zeroext false, ptr noundef nonnull @.str.106, i32 noundef 266, ptr noundef nonnull @__func__._opt_copy) #17
  tail call void @llvm.memcpy.p0.p0.i64(ptr noundef nonnull align 8 dereferenceable(816) %1, ptr noundef nonnull align 8 dereferenceable(816) @opt, i64 816, i1 false)
  %2 = tail call ptr @slurm_xcalloc(i64 noundef 1, i64 noundef 224, i1 noundef zeroext true, i1 noundef zeroext false, ptr noundef nonnull @.str.106, i32 noundef 268, ptr noundef nonnull @__func__._opt_copy) #17
  %3 = getelementptr inbounds nuw i8, ptr %1, i64 24
  store ptr %2, ptr %3, align 8
  tail call void @llvm.memcpy.p0.p0.i64(ptr noundef nonnull align 8 dereferenceable(224) %2, ptr noundef nonnull align 8 dereferenceable(224) @sropt, i64 224, i1 false)
  %4 = load ptr, ptr getelementptr inbounds nuw (i8, ptr @opt, i64 288), align 8
  %5 = tail call ptr @xstrdup(ptr noundef %4) #17
  %6 = getelementptr inbounds nuw i8, ptr %1, i64 288
  store ptr %5, ptr %6, align 8
  %7 = load ptr, ptr getelementptr inbounds nuw (i8, ptr @opt, i64 328), align 8
  %8 = tail call ptr @xstrdup(ptr noundef %7) #17
  %9 = getelementptr inbounds nuw i8, ptr %1, i64 328
  store ptr %8, ptr %9, align 8
  %10 = load ptr, ptr getelementptr inbounds nuw (i8, ptr @sropt, i64 8), align 8
  %11 = tail call ptr @xstrdup(ptr noundef %10) #17
  %12 = load ptr, ptr %3, align 8
  %13 = getelementptr inbounds nuw i8, ptr %12, i64 8
  store ptr %11, ptr %13, align 8
  %14 = load i32, ptr getelementptr inbounds nuw (i8, ptr @opt, i64 64), align 8
  %15 = sext i32 %14 to i64
  %16 = tail call ptr @slurm_xcalloc(i64 noundef 8, i64 noundef %15, i1 noundef zeroext true, i1 noundef zeroext false, ptr noundef nonnull @.str.106, i32 noundef 274, ptr noundef nonnull @__func__._opt_copy) #17
  %17 = getelementptr inbounds nuw i8, ptr %1, i64 72
  store ptr %16, ptr %17, align 8
  %18 = load i32, ptr getelementptr inbounds nuw (i8, ptr @opt, i64 64), align 8
  %19 = icmp sgt i32 %18, 0
  br i1 %19, label %.lr.ph, label %._crit_edge

.lr.ph:                                           ; preds = %0, %.lr.ph
  %indvars.iv = phi i64 [ %indvars.iv.next, %.lr.ph ], [ 0, %0 ]
  %20 = load ptr, ptr getelementptr inbounds nuw (i8, ptr @opt, i64 72), align 8
  %21 = getelementptr inbounds nuw ptr, ptr %20, i64 %indvars.iv
  %22 = load ptr, ptr %21, align 8
  %23 = tail call ptr @xstrdup(ptr noundef %22) #17
  %24 = load ptr, ptr %17, align 8
  %25 = getelementptr inbounds nuw ptr, ptr %24, i64 %indvars.iv
  store ptr %23, ptr %25, align 8
  %indvars.iv.next = add nuw nsw i64 %indvars.iv, 1
  %26 = load i32, ptr getelementptr inbounds nuw (i8, ptr @opt, i64 64), align 8
  %27 = sext i32 %26 to i64
  %28 = icmp slt i64 %indvars.iv.next, %27
  br i1 %28, label %.lr.ph, label %._crit_edge, !llvm.loop !23

._crit_edge:                                      ; preds = %.lr.ph, %0
  store ptr null, ptr getelementptr inbounds nuw (i8, ptr @sropt, i64 24), align 8
  store ptr null, ptr getelementptr inbounds nuw (i8, ptr @opt, i64 80), align 8
  %29 = load ptr, ptr getelementptr inbounds nuw (i8, ptr @opt, i64 488), align 8
  %30 = tail call ptr @xstrdup(ptr noundef %29) #17
  %31 = getelementptr inbounds nuw i8, ptr %1, i64 488
  store ptr %30, ptr %31, align 8
  %32 = load ptr, ptr getelementptr inbounds nuw (i8, ptr @opt, i64 96), align 8
  %33 = tail call ptr @xstrdup(ptr noundef %32) #17
  %34 = getelementptr inbounds nuw i8, ptr %1, i64 96
  store ptr %33, ptr %34, align 8
  %35 = load ptr, ptr getelementptr inbounds nuw (i8, ptr @sropt, i64 40), align 8
  %36 = tail call ptr @xstrdup(ptr noundef %35) #17
  %37 = load ptr, ptr %3, align 8
  %38 = getelementptr inbounds nuw i8, ptr %37, i64 40
  store ptr %36, ptr %38, align 8
  %39 = load ptr, ptr getelementptr inbounds nuw (i8, ptr @opt, i64 296), align 8
  %40 = tail call ptr @xstrdup(ptr noundef %39) #17
  %41 = getelementptr inbounds nuw i8, ptr %1, i64 296
  store ptr %40, ptr %41, align 8
  store ptr null, ptr getelementptr inbounds nuw (i8, ptr @opt, i64 480), align 8
  %42 = load ptr, ptr getelementptr inbounds nuw (i8, ptr @opt, i64 520), align 8
  %43 = tail call ptr @xstrdup(ptr noundef %42) #17
  %44 = getelementptr inbounds nuw i8, ptr %1, i64 520
  store ptr %43, ptr %44, align 8
  %45 = load ptr, ptr getelementptr inbounds nuw (i8, ptr @sropt, i64 56), align 8
  %46 = tail call ptr @xstrdup(ptr noundef %45) #17
  %47 = load ptr, ptr %3, align 8
  %48 = getelementptr inbounds nuw i8, ptr %47, i64 56
  store ptr %46, ptr %48, align 8
  %49 = load ptr, ptr getelementptr inbounds nuw (i8, ptr @opt, i64 112), align 8
  %50 = tail call ptr @xstrdup(ptr noundef %49) #17
  %51 = getelementptr inbounds nuw i8, ptr %1, i64 112
  store ptr %50, ptr %51, align 8
  %52 = load ptr, ptr getelementptr inbounds nuw (i8, ptr @opt, i64 272), align 8
  %53 = tail call ptr @xstrdup(ptr noundef %52) #17
  %54 = getelementptr inbounds nuw i8, ptr %1, i64 272
  store ptr %53, ptr %54, align 8
  %55 = load ptr, ptr getelementptr inbounds nuw (i8, ptr @opt, i64 792), align 8
  %56 = tail call ptr @xstrdup(ptr noundef %55) #17
  %57 = getelementptr inbounds nuw i8, ptr %1, i64 792
  store ptr %56, ptr %57, align 8
  %58 = load ptr, ptr getelementptr inbounds nuw (i8, ptr @sropt, i64 72), align 8
  %59 = tail call ptr @xstrdup(ptr noundef %58) #17
  %60 = load ptr, ptr %3, align 8
  %61 = getelementptr inbounds nuw i8, ptr %60, i64 72
  store ptr %59, ptr %61, align 8
  %62 = load ptr, ptr getelementptr inbounds nuw (i8, ptr @opt, i64 560), align 8
  %63 = tail call ptr @xstrdup(ptr noundef %62) #17
  %64 = getelementptr inbounds nuw i8, ptr %1, i64 560
  store ptr %63, ptr %64, align 8
  %65 = load ptr, ptr getelementptr inbounds nuw (i8, ptr @opt, i64 784), align 8
  %66 = tail call ptr @xstrdup(ptr noundef %65) #17
  %67 = getelementptr inbounds nuw i8, ptr %1, i64 784
  store ptr %66, ptr %67, align 8
  %68 = load ptr, ptr getelementptr inbounds nuw (i8, ptr @opt, i64 584), align 8
  %69 = tail call ptr @xstrdup(ptr noundef %68) #17
  %70 = getelementptr inbounds nuw i8, ptr %1, i64 584
  store ptr %69, ptr %70, align 8
  store ptr null, ptr getelementptr inbounds nuw (i8, ptr @opt, i64 496), align 8
  tail call void @llvm.memset.p0.i64(ptr noundef nonnull align 8 dereferenceable(48) getelementptr inbounds nuw (i8, ptr @opt, i64 376), i8 0, i64 48, i1 false)
  %71 = load ptr, ptr getelementptr inbounds nuw (i8, ptr @opt, i64 800), align 8
  %72 = tail call ptr @xstrdup(ptr noundef %71) #17
  %73 = getelementptr inbounds nuw i8, ptr %1, i64 800
  store ptr %72, ptr %73, align 8
  %74 = load ptr, ptr getelementptr inbounds nuw (i8, ptr @opt, i64 264), align 8
  %75 = tail call ptr @xstrdup(ptr noundef %74) #17
  %76 = getelementptr inbounds nuw i8, ptr %1, i64 264
  store ptr %75, ptr %76, align 8
  store ptr null, ptr getelementptr inbounds nuw (i8, ptr @opt, i64 344), align 8
  store ptr null, ptr getelementptr inbounds nuw (i8, ptr @opt, i64 600), align 8
  %77 = load ptr, ptr getelementptr inbounds nuw (i8, ptr @opt, i64 680), align 8
  %78 = tail call ptr @xstrdup(ptr noundef %77) #17
  %79 = getelementptr inbounds nuw i8, ptr %1, i64 680
  store ptr %78, ptr %79, align 8
  store ptr null, ptr getelementptr inbounds nuw (i8, ptr @opt, i64 216), align 8
  %80 = load ptr, ptr getelementptr inbounds nuw (i8, ptr @sropt, i64 112), align 8
  %81 = tail call ptr @xstrdup(ptr noundef %80) #17
  %82 = load ptr, ptr %3, align 8
  %83 = getelementptr inbounds nuw i8, ptr %82, i64 112
  store ptr %81, ptr %83, align 8
  store ptr null, ptr getelementptr inbounds nuw (i8, ptr @opt, i64 352), align 8
  store ptr null, ptr getelementptr inbounds nuw (i8, ptr @opt, i64 544), align 8
  %84 = load ptr, ptr getelementptr inbounds nuw (i8, ptr @opt, i64 808), align 8
  %85 = tail call ptr @xstrdup(ptr noundef %84) #17
  %86 = getelementptr inbounds nuw i8, ptr %1, i64 808
  store ptr %85, ptr %86, align 8
  tail call void @llvm.memset.p0.i64(ptr noundef nonnull align 8 dereferenceable(16) getelementptr inbounds nuw (i8, ptr @sropt, i64 136), i8 0, i64 16, i1 false)
  store ptr null, ptr getelementptr inbounds nuw (i8, ptr @opt, i64 240), align 8
  %87 = load ptr, ptr getelementptr inbounds nuw (i8, ptr @sropt, i64 160), align 8
  %88 = tail call ptr @xstrdup(ptr noundef %87) #17
  %89 = load ptr, ptr %3, align 8
  %90 = getelementptr inbounds nuw i8, ptr %89, i64 160
  store ptr %88, ptr %90, align 8
  %91 = load ptr, ptr getelementptr inbounds nuw (i8, ptr @sropt, i64 168), align 8
  %92 = tail call ptr @xstrdup(ptr noundef %91) #17
  %93 = load ptr, ptr %3, align 8
  %94 = getelementptr inbounds nuw i8, ptr %93, i64 168
  store ptr %92, ptr %94, align 8
  %95 = load ptr, ptr getelementptr inbounds nuw (i8, ptr @opt, i64 304), align 8
  %96 = tail call ptr @xstrdup(ptr noundef %95) #17
  %97 = getelementptr inbounds nuw i8, ptr %1, i64 304
  store ptr %96, ptr %97, align 8
  %98 = load ptr, ptr getelementptr inbounds nuw (i8, ptr @opt, i64 624), align 8
  %99 = tail call ptr @xstrdup(ptr noundef %98) #17
  %100 = getelementptr inbounds nuw i8, ptr %1, i64 624
  store ptr %99, ptr %100, align 8
  store ptr null, ptr getelementptr inbounds nuw (i8, ptr @opt, i64 648), align 8
  %101 = load ptr, ptr getelementptr inbounds nuw (i8, ptr @sropt, i64 200), align 8
  %102 = tail call ptr @xstrdup(ptr noundef %101) #17
  %103 = load ptr, ptr %3, align 8
  %104 = getelementptr inbounds nuw i8, ptr %103, i64 200
  store ptr %102, ptr %104, align 8
  %105 = load ptr, ptr getelementptr inbounds nuw (i8, ptr @sropt, i64 208), align 8
  %106 = tail call ptr @xstrdup(ptr noundef %105) #17
  %107 = load ptr, ptr %3, align 8
  %108 = getelementptr inbounds nuw i8, ptr %107, i64 208
  store ptr %106, ptr %108, align 8
  %109 = load ptr, ptr getelementptr inbounds nuw (i8, ptr @opt, i64 728), align 8
  %110 = tail call ptr @xstrdup(ptr noundef %109) #17
  %111 = getelementptr inbounds nuw i8, ptr %1, i64 728
  store ptr %110, ptr %111, align 8
  %112 = load ptr, ptr getelementptr inbounds nuw (i8, ptr @opt, i64 736), align 8
  %113 = tail call ptr @xstrdup(ptr noundef %112) #17
  %114 = getelementptr inbounds nuw i8, ptr %1, i64 736
  store ptr %113, ptr %114, align 8
  store ptr null, ptr getelementptr inbounds nuw (i8, ptr @opt, i64 744), align 8
  %115 = load ptr, ptr getelementptr inbounds nuw (i8, ptr @opt, i64 616), align 8
  %116 = tail call ptr @xstrdup(ptr noundef %115) #17
  %117 = getelementptr inbounds nuw i8, ptr %1, i64 616
  store ptr %116, ptr %117, align 8
  ret ptr %1
}